
firmware.elf:     file format elf32-littleriscv


Disassembly of section .prog:

00000000 <_start>:
   0:	1fc000ef          	jal	ra,1fc <main>

00000004 <format_hex>:
   4:	fd010113          	addi	sp,sp,-48
   8:	02812623          	sw	s0,44(sp)
   c:	03010413          	addi	s0,sp,48
  10:	fca42e23          	sw	a0,-36(s0)
  14:	fcb42c23          	sw	a1,-40(s0)
  18:	fe042623          	sw	zero,-20(s0)
  1c:	0480006f          	j	64 <format_hex+0x60>
  20:	fdc42783          	lw	a5,-36(s0)
  24:	00f7f713          	andi	a4,a5,15
  28:	2f800793          	li	a5,760
  2c:	00f70733          	add	a4,a4,a5
  30:	fec42783          	lw	a5,-20(s0)
  34:	00700693          	li	a3,7
  38:	40f687b3          	sub	a5,a3,a5
  3c:	fd842683          	lw	a3,-40(s0)
  40:	00f687b3          	add	a5,a3,a5
  44:	00074703          	lbu	a4,0(a4)
  48:	00e78023          	sb	a4,0(a5)
  4c:	fdc42783          	lw	a5,-36(s0)
  50:	0047d793          	srli	a5,a5,0x4
  54:	fcf42e23          	sw	a5,-36(s0)
  58:	fec42783          	lw	a5,-20(s0)
  5c:	00178793          	addi	a5,a5,1
  60:	fef42623          	sw	a5,-20(s0)
  64:	fec42703          	lw	a4,-20(s0)
  68:	00700793          	li	a5,7
  6c:	fae7dae3          	bge	a5,a4,20 <format_hex+0x1c>
  70:	00000013          	nop
  74:	00000013          	nop
  78:	02c12403          	lw	s0,44(sp)
  7c:	03010113          	addi	sp,sp,48
  80:	00008067          	ret

00000084 <uart_init>:
  84:	fe010113          	addi	sp,sp,-32
  88:	00812e23          	sw	s0,28(sp)
  8c:	02010413          	addi	s0,sp,32
  90:	000017b7          	lui	a5,0x1
  94:	a2c78793          	addi	a5,a5,-1492 # a2c <gpio_i+0x710>
  98:	fef42623          	sw	a5,-20(s0)
  9c:	30802783          	lw	a5,776(zero) # 308 <uart_div_reg>
  a0:	fec42703          	lw	a4,-20(s0)
  a4:	00e7a023          	sw	a4,0(a5)
  a8:	00000013          	nop
  ac:	01c12403          	lw	s0,28(sp)
  b0:	02010113          	addi	sp,sp,32
  b4:	00008067          	ret

000000b8 <uart_putc>:
  b8:	fe010113          	addi	sp,sp,-32
  bc:	00812e23          	sw	s0,28(sp)
  c0:	02010413          	addi	s0,sp,32
  c4:	00050793          	mv	a5,a0
  c8:	fef407a3          	sb	a5,-17(s0)
  cc:	30c02783          	lw	a5,780(zero) # 30c <uart_wdata_reg>
  d0:	fef44703          	lbu	a4,-17(s0)
  d4:	00e7a023          	sw	a4,0(a5)
  d8:	00000013          	nop
  dc:	01c12403          	lw	s0,28(sp)
  e0:	02010113          	addi	sp,sp,32
  e4:	00008067          	ret

000000e8 <uart_puts>:
  e8:	fe010113          	addi	sp,sp,-32
  ec:	00812e23          	sw	s0,28(sp)
  f0:	02010413          	addi	s0,sp,32
  f4:	fea42623          	sw	a0,-20(s0)
  f8:	0100006f          	j	108 <uart_puts+0x20>
  fc:	fec42783          	lw	a5,-20(s0)
 100:	00178793          	addi	a5,a5,1
 104:	fef42623          	sw	a5,-20(s0)
 108:	fec42783          	lw	a5,-20(s0)
 10c:	0007c783          	lbu	a5,0(a5)
 110:	fe0796e3          	bnez	a5,fc <uart_puts+0x14>
 114:	00000013          	nop
 118:	00000013          	nop
 11c:	01c12403          	lw	s0,28(sp)
 120:	02010113          	addi	sp,sp,32
 124:	00008067          	ret

00000128 <sdram_init>:
 128:	fe010113          	addi	sp,sp,-32
 12c:	00812e23          	sw	s0,28(sp)
 130:	02010413          	addi	s0,sp,32
 134:	fe042623          	sw	zero,-20(s0)
 138:	0280006f          	j	160 <sdram_init+0x38>
 13c:	31402703          	lw	a4,788(zero) # 314 <sdram>
 140:	fec42783          	lw	a5,-20(s0)
 144:	00f707b3          	add	a5,a4,a5
 148:	fec42703          	lw	a4,-20(s0)
 14c:	0ff77713          	zext.b	a4,a4
 150:	00e78023          	sb	a4,0(a5)
 154:	fec42783          	lw	a5,-20(s0)
 158:	00178793          	addi	a5,a5,1
 15c:	fef42623          	sw	a5,-20(s0)
 160:	fec42703          	lw	a4,-20(s0)
 164:	3ff00793          	li	a5,1023
 168:	fce7dae3          	bge	a5,a4,13c <sdram_init+0x14>
 16c:	00000013          	nop
 170:	00000013          	nop
 174:	01c12403          	lw	s0,28(sp)
 178:	02010113          	addi	sp,sp,32
 17c:	00008067          	ret

00000180 <sdram_check>:
 180:	fd010113          	addi	sp,sp,-48
 184:	02812623          	sw	s0,44(sp)
 188:	03010413          	addi	s0,sp,48
 18c:	fe040423          	sb	zero,-24(s0)
 190:	fc040e23          	sb	zero,-36(s0)
 194:	fe042623          	sw	zero,-20(s0)
 198:	0440006f          	j	1dc <sdram_check+0x5c>
 19c:	31402703          	lw	a4,788(zero) # 314 <sdram>
 1a0:	fec42783          	lw	a5,-20(s0)
 1a4:	00f707b3          	add	a5,a4,a5
 1a8:	0007c783          	lbu	a5,0(a5)
 1ac:	fef405a3          	sb	a5,-21(s0)
 1b0:	fec42783          	lw	a5,-20(s0)
 1b4:	fef40523          	sb	a5,-22(s0)
 1b8:	feb44703          	lbu	a4,-21(s0)
 1bc:	fea44783          	lbu	a5,-22(s0)
 1c0:	02f71663          	bne	a4,a5,1ec <sdram_check+0x6c>
 1c4:	fea44783          	lbu	a5,-22(s0)
 1c8:	00178793          	addi	a5,a5,1
 1cc:	fef40523          	sb	a5,-22(s0)
 1d0:	fec42783          	lw	a5,-20(s0)
 1d4:	00178793          	addi	a5,a5,1
 1d8:	fef42623          	sw	a5,-20(s0)
 1dc:	fec42703          	lw	a4,-20(s0)
 1e0:	3ff00793          	li	a5,1023
 1e4:	fae7dce3          	bge	a5,a4,19c <sdram_check+0x1c>
 1e8:	0080006f          	j	1f0 <sdram_check+0x70>
 1ec:	00000013          	nop
 1f0:	02c12403          	lw	s0,44(sp)
 1f4:	03010113          	addi	sp,sp,48
 1f8:	00008067          	ret

000001fc <main>:
 1fc:	fe010113          	addi	sp,sp,-32
 200:	00112e23          	sw	ra,28(sp)
 204:	00812c23          	sw	s0,24(sp)
 208:	02010413          	addi	s0,sp,32
 20c:	fe042623          	sw	zero,-20(s0)
 210:	0380006f          	j	248 <main+0x4c>
 214:	fe042423          	sw	zero,-24(s0)
 218:	0100006f          	j	228 <main+0x2c>
 21c:	fe842783          	lw	a5,-24(s0)
 220:	00178793          	addi	a5,a5,1
 224:	fef42423          	sw	a5,-24(s0)
 228:	fe842703          	lw	a4,-24(s0)
 22c:	06300793          	li	a5,99
 230:	fee7d6e3          	bge	a5,a4,21c <main+0x20>
 234:	ef5ff0ef          	jal	ra,128 <sdram_init>
 238:	f49ff0ef          	jal	ra,180 <sdram_check>
 23c:	fec42783          	lw	a5,-20(s0)
 240:	00178793          	addi	a5,a5,1
 244:	fef42623          	sw	a5,-20(s0)
 248:	fec42783          	lw	a5,-20(s0)
 24c:	fcf054e3          	blez	a5,214 <main+0x18>
 250:	00100793          	li	a5,1
 254:	00078513          	mv	a0,a5
 258:	01c12083          	lw	ra,28(sp)
 25c:	01812403          	lw	s0,24(sp)
 260:	02010113          	addi	sp,sp,32
 264:	00008067          	ret

Disassembly of section .data:

00000268 <str1>:
 268:	6e49                	.2byte	0x6e49
 26a:	7469                	.2byte	0x7469
 26c:	6169                	.2byte	0x6169
 26e:	696c                	.2byte	0x696c
 270:	697a                	.2byte	0x697a
 272:	676e                	.2byte	0x676e
 274:	5320                	.2byte	0x5320
 276:	5244                	.2byte	0x5244
 278:	4d41                	.2byte	0x4d41
 27a:	2e2e                	.2byte	0x2e2e
 27c:	0a2e                	.2byte	0xa2e
	...

00000288 <str2>:
 288:	6e49                	.2byte	0x6e49
 28a:	7469                	.2byte	0x7469
 28c:	6169                	.2byte	0x6169
 28e:	696c                	.2byte	0x696c
 290:	617a                	.2byte	0x617a
 292:	6974                	.2byte	0x6974
 294:	64206e6f          	jal	t3,68d6 <gpio_i+0x65ba>
 298:	21656e6f          	jal	t3,564ae <gpio_i+0x56192>
 29c:	000a                	.2byte	0xa
	...

000002a8 <str3>:
 2a8:	72617453          	.4byte	0x72617453
 2ac:	6974                	.2byte	0x6974
 2ae:	676e                	.2byte	0x676e
 2b0:	6320                	.2byte	0x6320
 2b2:	6568                	.2byte	0x6568
 2b4:	2e2e6b63          	bltu	t3,sp,5aa <gpio_i+0x28e>
 2b8:	0a2e                	.2byte	0xa2e
	...

000002c8 <str4>:
 2c8:	41524453          	.4byte	0x41524453
 2cc:	204d                	.2byte	0x204d
 2ce:	63656863          	bltu	a0,s6,8fe <gpio_i+0x5e2>
 2d2:	6966206b          	.4byte	0x6966206b
 2d6:	696e                	.2byte	0x696e
 2d8:	64656873          	csrrsi	a6,0x646,10
 2dc:	7720                	.2byte	0x7720
 2de:	7469                	.2byte	0x7469
 2e0:	2068                	.2byte	0x2068
 2e2:	6f6e                	.2byte	0x6f6e
 2e4:	6520                	.2byte	0x6520
 2e6:	7272                	.2byte	0x7272
 2e8:	2173726f          	jal	tp,37cfe <gpio_i+0x379e2>
 2ec:	000a                	.2byte	0xa
	...

000002f8 <hexMap>:
 2f8:	3130                	.2byte	0x3130
 2fa:	3332                	.2byte	0x3332
 2fc:	3534                	.2byte	0x3534
 2fe:	3736                	.2byte	0x3736
 300:	3938                	.2byte	0x3938
 302:	4241                	.2byte	0x4241
 304:	46454443          	.4byte	0x46454443

Disassembly of section .sdata:

00000308 <uart_div_reg>:
 308:	0000                	.2byte	0x0
 30a:	3000                	.2byte	0x3000

0000030c <uart_wdata_reg>:
 30c:	0004                	.2byte	0x4
 30e:	3000                	.2byte	0x3000

00000310 <uart_rdata_reg>:
 310:	0008                	.2byte	0x8
 312:	3000                	.2byte	0x3000

00000314 <sdram>:
 314:	0000                	.2byte	0x0
 316:	8000                	.2byte	0x8000

00000318 <gpio_o>:
 318:	0000                	.2byte	0x0
 31a:	1000                	.2byte	0x1000

0000031c <gpio_i>:
 31c:	0004                	.2byte	0x4
 31e:	1000                	.2byte	0x1000

Disassembly of section .riscv.attributes:

00000000 <.riscv.attributes>:
   0:	1b41                	.2byte	0x1b41
   2:	0000                	.2byte	0x0
   4:	7200                	.2byte	0x7200
   6:	7369                	.2byte	0x7369
   8:	01007663          	bgeu	zero,a6,14 <format_hex+0x10>
   c:	0011                	.2byte	0x11
   e:	0000                	.2byte	0x0
  10:	1004                	.2byte	0x1004
  12:	7205                	.2byte	0x7205
  14:	3376                	.2byte	0x3376
  16:	6932                	.2byte	0x6932
  18:	7032                	.2byte	0x7032
  1a:	0030                	.2byte	0x30

Disassembly of section .comment:

00000000 <.comment>:
   0:	3a434347          	.4byte	0x3a434347
   4:	2820                	.2byte	0x2820
   6:	29554e47          	.4byte	0x29554e47
   a:	3120                	.2byte	0x3120
   c:	2e31                	.2byte	0x2e31
   e:	00302e33          	sgtz	t3,gp
